target datalayout = "e-m:e-p270:32:32-p271:32:32-p272:64:64-i64:64-i128:128-f80:128-n8:16:32:64-S128"
target triple = "x86_64-pc-linux-gnu"

%"struct.gmx::IMDSocket" = type { %struct.sockaddr_in, i32 }
%struct.sockaddr_in = type { i16, i16, %struct.in_addr, [8 x i8] }
%struct.in_addr = type { i32 }
%struct.fd_set = type { [16 x i64] }
%struct.timeval = type { i64, i64 }

@.str.1 = private unnamed_addr constant [123 x i8] c"generated/home/dtcxzyw/WorkSpace/Projects/compilers/llvm-opt-benchmark/bench/gromacs/gromacs/src/gromacs/imd/imdsocket.cpp\00", align 1
@.str.7 = private unnamed_addr constant [5 x i8] c"tval\00", align 1

; Function Attrs: inlinehint mustprogress uwtable
define internal void @_ZL14gmx_sfree_implI7timevalEvPKcS2_iPT_(ptr noundef %0, ptr noundef %1, i32 noundef %2, ptr noundef %3) #3 {
  %5 = alloca ptr, align 8
  %6 = alloca ptr, align 8
  %7 = alloca i32, align 4
  %8 = alloca ptr, align 8
  store ptr %0, ptr %5, align 8, !tbaa !16
  store ptr %1, ptr %6, align 8, !tbaa !16
  store i32 %2, ptr %7, align 4, !tbaa !15
  store ptr %3, ptr %8, align 8, !tbaa !35
  %9 = load ptr, ptr %5, align 8, !tbaa !16
  %10 = load ptr, ptr %6, align 8, !tbaa !16
  %11 = load i32, ptr %7, align 4, !tbaa !15
  %12 = load ptr, ptr %8, align 8, !tbaa !35
  call void @_Z9save_freePKcS0_iPv(ptr noundef %9, ptr noundef %10, i32 noundef %11, ptr noundef %12)
  ret void
}

; Function Attrs: inlinehint mustprogress uwtable
define internal void @_ZL13gmx_snew_implI7timevalEvPKcS2_iRPT_m(ptr noundef %0, ptr noundef %1, i32 noundef %2, ptr noundef nonnull align 8 dereferenceable(8) %3, i64 noundef %4) #3 {
  %6 = alloca ptr, align 8
  %7 = alloca ptr, align 8
  %8 = alloca i32, align 4
  %9 = alloca ptr, align 8
  %10 = alloca i64, align 8
  store ptr %0, ptr %6, align 8, !tbaa !16
  store ptr %1, ptr %7, align 8, !tbaa !16
  store i32 %2, ptr %8, align 4, !tbaa !15
  store ptr %3, ptr %9, align 8, !tbaa !41
  store i64 %4, ptr %10, align 8, !tbaa !21
  %11 = load ptr, ptr %6, align 8, !tbaa !16
  %12 = load ptr, ptr %7, align 8, !tbaa !16
  %13 = load i32, ptr %8, align 4, !tbaa !15
  %14 = load i64, ptr %10, align 8, !tbaa !21
  %15 = call noundef ptr @_Z11save_callocPKcS0_imm(ptr noundef %11, ptr noundef %12, i32 noundef %13, i64 noundef %14, i64 noundef 16)
  %16 = load ptr, ptr %9, align 8, !tbaa !41
  store ptr %15, ptr %16, align 8, !tbaa !35
  ret void
}

; Function Attrs: mustprogress uwtable
define noundef i32 @_ZN3gmx15imdsock_tryreadEPNS_9IMDSocketEii(ptr noundef %0, i32 noundef %1, i32 noundef %2) #1 {
  %4 = alloca ptr, align 8
  %5 = alloca i32, align 4
  %6 = alloca i32, align 4
  %7 = alloca i32, align 4
  %8 = alloca %struct.fd_set, align 8
  %9 = alloca ptr, align 8
  %10 = alloca i32, align 4
  %11 = alloca ptr, align 8
  store ptr %0, ptr %4, align 8, !tbaa !4
  store i32 %1, ptr %5, align 4, !tbaa !15
  store i32 %2, ptr %6, align 4, !tbaa !15
  call void @llvm.lifetime.start.p0(i64 4, ptr %7) #10
  store i32 -1, ptr %7, align 4, !tbaa !15
  call void @llvm.lifetime.start.p0(i64 128, ptr %8) #10
  call void @llvm.lifetime.start.p0(i64 8, ptr %9) #10
  call void @_ZL13gmx_snew_implI7timevalEvPKcS2_iRPT_m(ptr noundef @.str.7, ptr noundef @.str.1, i32 noundef 411, ptr noundef nonnull align 8 dereferenceable(8) %9, i64 noundef 1)
  br label %12

12:                                               ; preds = %3
  call void @llvm.lifetime.start.p0(i64 4, ptr %10) #10
  call void @llvm.lifetime.start.p0(i64 8, ptr %11) #10
  store ptr %8, ptr %11, align 8, !tbaa !32
  store i32 0, ptr %10, align 4, !tbaa !15
  br label %13

13:                                               ; preds = %23, %12
  %14 = load i32, ptr %10, align 4, !tbaa !15
  %15 = zext i32 %14 to i64
  %16 = icmp ult i64 %15, 16
  br i1 %16, label %17, label %26

17:                                               ; preds = %13
  %18 = load ptr, ptr %11, align 8, !tbaa !32
  %19 = getelementptr inbounds nuw %struct.fd_set, ptr %18, i32 0, i32 0
  %20 = load i32, ptr %10, align 4, !tbaa !15
  %21 = zext i32 %20 to i64
  %22 = getelementptr inbounds nuw [16 x i64], ptr %19, i64 0, i64 %21
  store i64 0, ptr %22, align 8, !tbaa !21
  br label %23

23:                                               ; preds = %17
  %24 = load i32, ptr %10, align 4, !tbaa !15
  %25 = add i32 %24, 1
  store i32 %25, ptr %10, align 4, !tbaa !15
  br label %13, !llvm.loop !33

26:                                               ; preds = %13
  call void @llvm.lifetime.end.p0(i64 8, ptr %11) #10
  call void @llvm.lifetime.end.p0(i64 4, ptr %10) #10
  br label %27

27:                                               ; preds = %26
  br label %28

28:                                               ; preds = %27
  %29 = load ptr, ptr %4, align 8, !tbaa !4
  %30 = getelementptr inbounds nuw %"struct.gmx::IMDSocket", ptr %29, i32 0, i32 1
  %31 = load i32, ptr %30, align 4, !tbaa !9
  %32 = srem i32 %31, 64
  %33 = zext i32 %32 to i64
  %34 = shl i64 1, %33
  %35 = getelementptr inbounds nuw %struct.fd_set, ptr %8, i32 0, i32 0
  %36 = load ptr, ptr %4, align 8, !tbaa !4
  %37 = getelementptr inbounds nuw %"struct.gmx::IMDSocket", ptr %36, i32 0, i32 1
  %38 = load i32, ptr %37, align 4, !tbaa !9
  %39 = sdiv i32 %38, 64
  %40 = sext i32 %39 to i64
  %41 = getelementptr inbounds [16 x i64], ptr %35, i64 0, i64 %40
  %42 = load i64, ptr %41, align 8, !tbaa !21
  %43 = or i64 %42, %34
  store i64 %43, ptr %41, align 8, !tbaa !21
  %44 = load i32, ptr %5, align 4, !tbaa !15
  %45 = sext i32 %44 to i64
  %46 = load ptr, ptr %9, align 8, !tbaa !35
  %47 = getelementptr inbounds nuw %struct.timeval, ptr %46, i32 0, i32 0
  store i64 %45, ptr %47, align 8, !tbaa !37
  %48 = load i32, ptr %6, align 4, !tbaa !15
  %49 = sext i32 %48 to i64
  %50 = load ptr, ptr %9, align 8, !tbaa !35
  %51 = getelementptr inbounds nuw %struct.timeval, ptr %50, i32 0, i32 1
  store i64 %49, ptr %51, align 8, !tbaa !39
  br label %52

52:                                               ; preds = %66, %28
  %53 = load ptr, ptr %4, align 8, !tbaa !4
  %54 = getelementptr inbounds nuw %"struct.gmx::IMDSocket", ptr %53, i32 0, i32 1
  %55 = load i32, ptr %54, align 4, !tbaa !9
  %56 = add nsw i32 %55, 1
  %57 = load ptr, ptr %9, align 8, !tbaa !35
  %58 = call i32 @select(i32 noundef %56, ptr noundef %8, ptr noundef null, ptr noundef null, ptr noundef %57)
  store i32 %58, ptr %7, align 4, !tbaa !15
  br label %59

59:                                               ; preds = %52
  %60 = load i32, ptr %7, align 4, !tbaa !15
  %61 = icmp slt i32 %60, 0
  br i1 %61, label %62, label %66

62:                                               ; preds = %59
  %63 = call ptr @__errno_location() #11
  %64 = load i32, ptr %63, align 4, !tbaa !15
  %65 = icmp eq i32 %64, 4
  br label %66

66:                                               ; preds = %62, %59
  %67 = phi i1 [ false, %59 ], [ %65, %62 ]
  br i1 %67, label %52, label %68, !llvm.loop !40

68:                                               ; preds = %66
  %69 = load ptr, ptr %9, align 8, !tbaa !35
  call void @_ZL14gmx_sfree_implI7timevalEvPKcS2_iPT_(ptr noundef @.str.7, ptr noundef @.str.1, i32 noundef 428, ptr noundef %69)
  %70 = load i32, ptr %7, align 4, !tbaa !15
  %71 = icmp slt i32 %70, 0
  br i1 %71, label %72, label %76

72:                                               ; preds = %68
  %73 = call ptr @__errno_location() #11
  %74 = load i32, ptr %73, align 4, !tbaa !15
  %75 = call ptr @strerror(i32 noundef %74) #10
  call void @_ZN3gmxL15print_IMD_errorEPKciPc(ptr noundef @.str.1, i32 noundef 437, ptr noundef %75)
  br label %76

76:                                               ; preds = %72, %68
  %77 = load i32, ptr %7, align 4, !tbaa !15
  call void @llvm.lifetime.end.p0(i64 8, ptr %9) #10
  call void @llvm.lifetime.end.p0(i64 128, ptr %8) #10
  call void @llvm.lifetime.end.p0(i64 4, ptr %7) #10
  ret i32 %77
}