; Function Attrs: mustprogress uwtable
define noundef i32 @_ZN3gmx15imdsock_tryreadEPNS_9IMDSocketEii(ptr noundef readonly captures(none) %0, i32 noundef %1, i32 noundef %2) local_unnamed_addr #1 {
  %4 = alloca %struct.fd_set, align 8
  call void @llvm.lifetime.start.p0(i64 128, ptr nonnull %4) #14
  %5 = tail call noundef ptr @_Z11save_callocPKcS0_imm(ptr noundef nonnull @.str.7, ptr noundef nonnull @.str.1, i32 noundef 411, i64 noundef 1, i64 noundef 16)
  call void @llvm.memset.p0.i64(ptr noundef nonnull align 8 dereferenceable(128) %4, i8 0, i64 128, i1 false), !tbaa !21
  %6 = getelementptr inbounds nuw i8, ptr %0, i64 16
  %7 = load i32, ptr %6, align 4, !tbaa !4
  %8 = srem i32 %7, 64
  %9 = zext nneg i32 %8 to i64
  %10 = shl nuw i64 1, %9
  %11 = sdiv i32 %7, 64
  %12 = sext i32 %11 to i64
  %13 = getelementptr inbounds [16 x i64], ptr %4, i64 0, i64 %12
  %14 = load i64, ptr %13, align 8, !tbaa !21
  %15 = or i64 %10, %14
  store i64 %15, ptr %13, align 8, !tbaa !21
  %16 = sext i32 %1 to i64
  store i64 %16, ptr %5, align 8, !tbaa !23
  %17 = sext i32 %2 to i64
  %18 = getelementptr inbounds nuw i8, ptr %5, i64 8
  store i64 %17, ptr %18, align 8, !tbaa !25
  br label %19

19:                                               ; preds = %24, %3
  %20 = load i32, ptr %6, align 4, !tbaa !4
  %21 = add nsw i32 %20, 1
  %22 = call i32 @select(i32 noundef %21, ptr noundef nonnull %4, ptr noundef null, ptr noundef null, ptr noundef nonnull %5)
  %23 = icmp slt i32 %22, 0
  br i1 %23, label %24, label %.critedge12

24:                                               ; preds = %19
  %25 = tail call ptr @__errno_location() #15
  %26 = load i32, ptr %25, align 4, !tbaa !12
  %27 = icmp eq i32 %26, 4
  br i1 %27, label %19, label %28, !llvm.loop !26

28:                                               ; preds = %24
  call void @_Z9save_freePKcS0_iPv(ptr noundef nonnull @.str.7, ptr noundef nonnull @.str.1, i32 noundef 428, ptr noundef nonnull %5)
  %29 = load i32, ptr %25, align 4, !tbaa !12
  %30 = call ptr @strerror(i32 noundef %29) #14
  call fastcc void @_ZN3gmxL15print_IMD_errorEPKciPc(i32 noundef 437, ptr noundef %30)
  br label %31

.critedge12:                                      ; preds = %19
  call void @_Z9save_freePKcS0_iPv(ptr noundef nonnull @.str.7, ptr noundef nonnull @.str.1, i32 noundef 428, ptr noundef nonnull %5)
  br label %31

31:                                               ; preds = %.critedge12, %28
  call void @llvm.lifetime.end.p0(i64 128, ptr nonnull %4) #14
  ret i32 %22
}